; Function Attrs: mustprogress uwtable
define dso_local noundef nonnull ptr @_ZN4Luau7CodeGen16executeSETGLOBALEP9lua_StatePKjP10lua_TValueS6_(ptr noundef %0, ptr noundef %1, ptr noundef %2, ptr noundef %3) local_unnamed_addr #2 {
  %5 = alloca %struct.lua_TValue, align 8
  %6 = getelementptr inbounds i8, ptr %0, i64 32
  %7 = load ptr, ptr %6, align 8
  %8 = getelementptr inbounds i8, ptr %7, i64 8
  %9 = load ptr, ptr %8, align 8
  %10 = load ptr, ptr %9, align 8
  %11 = getelementptr inbounds i8, ptr %1, i64 4
  %12 = load i32, ptr %1, align 4
  %13 = lshr i32 %12, 8
  %14 = and i32 %13, 255
  %15 = zext nneg i32 %14 to i64
  %16 = getelementptr inbounds %struct.lua_TValue, ptr %2, i64 %15
  %17 = getelementptr inbounds i8, ptr %1, i64 8
  %18 = load i32, ptr %11, align 4
  %19 = zext i32 %18 to i64
  %20 = getelementptr inbounds %struct.lua_TValue, ptr %3, i64 %19
  %21 = getelementptr inbounds i8, ptr %10, i64 16
  %22 = load ptr, ptr %21, align 8
  %23 = lshr i32 %12, 24
  %24 = getelementptr inbounds i8, ptr %22, i64 7
  %25 = load i8, ptr %24, align 1
  %26 = zext i8 %25 to i32
  %27 = and i32 %23, %26
  store ptr %22, ptr %5, align 8
  %28 = getelementptr inbounds i8, ptr %5, i64 12
  store i32 6, ptr %28, align 4
  %29 = getelementptr inbounds i8, ptr %0, i64 84
  store i32 %27, ptr %29, align 4
  %30 = getelementptr inbounds i8, ptr %7, i64 24
  store ptr %17, ptr %30, align 8
  call void @_Z13luaV_settableP9lua_StatePK10lua_TValuePS1_S4_(ptr noundef %0, ptr noundef nonnull %5, ptr noundef %20, ptr noundef %16)
  %31 = load i32, ptr %29, align 4
  %32 = shl i32 %31, 24
  %33 = load i32, ptr %1, align 4
  %34 = and i32 %33, 16777215
  %35 = or disjoint i32 %34, %32
  store i32 %35, ptr %1, align 4
  ret ptr %17
}